; Function Attrs: nofree norecurse nosync nounwind memory(argmem: write) uwtable
define noundef i32 @XzUnpacker_Create(ptr noundef writeonly captures(none) initializes((88, 108)) %0, ptr noundef %1) local_unnamed_addr #4 {
  %3 = getelementptr inbounds nuw i8, ptr %0, i64 88
  store ptr %1, ptr %3, align 8
  %4 = getelementptr inbounds nuw i8, ptr %0, i64 96
  store ptr null, ptr %4, align 8
  %5 = getelementptr inbounds nuw i8, ptr %0, i64 104
  store i32 0, ptr %5, align 8
  %6 = getelementptr inbounds nuw i8, ptr %0, i64 200
  br label %7

7:                                                ; preds = %7, %2
  %indvars.iv.i = phi i64 [ 0, %2 ], [ %indvars.iv.next.i, %7 ]
  %8 = getelementptr inbounds nuw [4 x %struct._IStateCoder], ptr %6, i64 0, i64 %indvars.iv.i
  store ptr null, ptr %8, align 8
  %indvars.iv.next.i = add nuw nsw i64 %indvars.iv.i, 1
  %exitcond.not.i = icmp eq i64 %indvars.iv.next.i, 4
  br i1 %exitcond.not.i, label %MixCoder_Construct.exit, label %7

MixCoder_Construct.exit:                          ; preds = %7
  store i32 0, ptr %0, align 8
  %9 = getelementptr inbounds nuw i8, ptr %0, i64 4
  store i32 0, ptr %9, align 4
  %10 = getelementptr inbounds nuw i8, ptr %0, i64 40
  store i64 0, ptr %10, align 8
  %11 = getelementptr inbounds nuw i8, ptr %0, i64 64
  tail call void @llvm.memset.p0.i64(ptr noundef nonnull align 8 dereferenceable(16) %11, i8 0, i64 16, i1 false)
  ret i32 0
}